; Function Attrs: mustprogress nofree nounwind willreturn memory(write, argmem: readwrite) uwtable
define hidden range(i32 -2, 1) i32 @ma_notch2_get_heap_size(ptr noundef readonly captures(none) %0, ptr noundef writeonly captures(address_is_null) %1) local_unnamed_addr #36 {
  %3 = getelementptr inbounds nuw i8, ptr %0, i64 24
  %4 = load double, ptr %3, align 8, !noalias !91
  %5 = fmul double %4, 0x401921FB54442D18
  %6 = getelementptr inbounds nuw i8, ptr %0, i64 8
  %7 = load i32, ptr %6, align 8, !noalias !91
  %8 = uitofp i32 %7 to double
  %9 = fdiv double %5, %8
  %10 = tail call double @llvm.fabs.f64(double %9)
  %11 = fcmp oeq double %10, 0x7FF0000000000000
  br i1 %11, label %cdce.call, label %cdce.end, !prof !11

cdce.call:                                        ; preds = %2
  %12 = tail call double @sin(double noundef %9) #72, !noalias !91
  br label %cdce.end

cdce.end:                                         ; preds = %2, %cdce.call
  %13 = fsub double 0x3FF921FB54442D18, %9
  %14 = tail call double @llvm.fabs.f64(double %13)
  %15 = fcmp oeq double %14, 0x7FF0000000000000
  br i1 %15, label %cdce.call9, label %cdce.end10, !prof !11

cdce.call9:                                       ; preds = %cdce.end
  %16 = tail call double @sin(double noundef %13) #72, !noalias !91
  br label %cdce.end10

cdce.end10:                                       ; preds = %cdce.end, %cdce.call9
  %17 = getelementptr inbounds nuw i8, ptr %0, i64 4
  %18 = load i32, ptr %17, align 4, !noalias !91
  %19 = icmp eq ptr %1, null
  br i1 %19, label %ma_biquad_get_heap_size.exit, label %20

20:                                               ; preds = %cdce.end10
  store i64 0, ptr %1, align 8
  %21 = icmp eq i32 %18, 0
  br i1 %21, label %ma_biquad_get_heap_size.exit, label %22

22:                                               ; preds = %20
  %23 = zext i32 %18 to i64
  %24 = shl nuw nsw i64 %23, 3
  store i64 %24, ptr %1, align 8
  br label %ma_biquad_get_heap_size.exit

ma_biquad_get_heap_size.exit:                     ; preds = %cdce.end10, %20, %22
  %.0.i = phi i32 [ 0, %22 ], [ -2, %cdce.end10 ], [ -2, %20 ]
  ret i32 %.0.i
}